target datalayout = "e-m:e-p270:32:32-p271:32:32-p272:64:64-i64:64-i128:128-f80:128-n8:16:32:64-S128"
target triple = "x86_64-pc-linux-gnu"

%"struct.duckdb_brotli::ManagedDictionary" = type { i32, %"struct.duckdb_brotli::MemoryManager", ptr }
%"struct.duckdb_brotli::MemoryManager" = type { ptr, ptr, ptr }

; Function Attrs: mustprogress uwtable
define noundef ptr @_ZN13duckdb_brotli29BrotliCreateManagedDictionaryEPFPvS0_mEPFvS0_S0_ES0_(ptr noundef %0, ptr noundef %1, ptr noundef %2) #0 {
  %4 = alloca ptr, align 8
  %5 = alloca ptr, align 8
  %6 = alloca ptr, align 8
  %7 = alloca ptr, align 8
  %8 = alloca ptr, align 8
  %9 = alloca i32, align 4
  store ptr %0, ptr %5, align 8, !tbaa !62
  store ptr %1, ptr %6, align 8, !tbaa !62
  store ptr %2, ptr %7, align 8, !tbaa !62
  call void @llvm.lifetime.start.p0(i64 8, ptr %8) #4
  %10 = load ptr, ptr %5, align 8, !tbaa !62
  %11 = load ptr, ptr %6, align 8, !tbaa !62
  %12 = load ptr, ptr %7, align 8, !tbaa !62
  %13 = call noundef ptr @_ZN13duckdb_brotli20BrotliBootstrapAllocEmPFPvS0_mEPFvS0_S0_ES0_(i64 noundef 40, ptr noundef %10, ptr noundef %11, ptr noundef %12)
  store ptr %13, ptr %8, align 8, !tbaa !63
  %14 = load ptr, ptr %8, align 8, !tbaa !63
  %15 = icmp eq ptr %14, null
  br i1 %15, label %16, label %17

16:                                               ; preds = %3
  store ptr null, ptr %4, align 8
  store i32 1, ptr %9, align 4
  br label %28

17:                                               ; preds = %3
  %18 = load ptr, ptr %8, align 8, !tbaa !63
  %19 = getelementptr inbounds nuw %"struct.duckdb_brotli::ManagedDictionary", ptr %18, i32 0, i32 0
  store i32 -558043678, ptr %19, align 8, !tbaa !65
  %20 = load ptr, ptr %8, align 8, !tbaa !63
  %21 = getelementptr inbounds nuw %"struct.duckdb_brotli::ManagedDictionary", ptr %20, i32 0, i32 1
  %22 = load ptr, ptr %5, align 8, !tbaa !62
  %23 = load ptr, ptr %6, align 8, !tbaa !62
  %24 = load ptr, ptr %7, align 8, !tbaa !62
  call void @_ZN13duckdb_brotli23BrotliInitMemoryManagerEPNS_13MemoryManagerEPFPvS2_mEPFvS2_S2_ES2_(ptr noundef %21, ptr noundef %22, ptr noundef %23, ptr noundef %24)
  %25 = load ptr, ptr %8, align 8, !tbaa !63
  %26 = getelementptr inbounds nuw %"struct.duckdb_brotli::ManagedDictionary", ptr %25, i32 0, i32 2
  store ptr null, ptr %26, align 8, !tbaa !69
  %27 = load ptr, ptr %8, align 8, !tbaa !63
  store ptr %27, ptr %4, align 8
  store i32 1, ptr %9, align 4
  br label %28

28:                                               ; preds = %17, %16
  call void @llvm.lifetime.end.p0(i64 8, ptr %8) #4
  %29 = load ptr, ptr %4, align 8
  ret ptr %29
}