; Function Attrs: mustprogress uwtable
define noundef ptr @_ZN13duckdb_brotli29BrotliCreateManagedDictionaryEPFPvS0_mEPFvS0_S0_ES0_(ptr noundef %0, ptr noundef %1, ptr noundef %2) local_unnamed_addr #0 {
  %4 = tail call noundef ptr @_ZN13duckdb_brotli20BrotliBootstrapAllocEmPFPvS0_mEPFvS0_S0_ES0_(i64 noundef 40, ptr noundef %0, ptr noundef %1, ptr noundef %2)
  %5 = icmp eq ptr %4, null
  br i1 %5, label %9, label %6

6:                                                ; preds = %3
  store i32 -558043678, ptr %4, align 8, !tbaa !58
  %7 = getelementptr inbounds nuw i8, ptr %4, i64 8
  tail call void @_ZN13duckdb_brotli23BrotliInitMemoryManagerEPNS_13MemoryManagerEPFPvS2_mEPFvS2_S2_ES2_(ptr noundef nonnull %7, ptr noundef %0, ptr noundef %1, ptr noundef %2)
  %8 = getelementptr inbounds nuw i8, ptr %4, i64 32
  store ptr null, ptr %8, align 8, !tbaa !62
  br label %9

9:                                                ; preds = %3, %6
  ret ptr %4
}